; Function Attrs: mustprogress uwtable
define void @_ZNK10open_spiel10battleship13ShipPlacement8ToStringB5cxx11Ev(ptr dead_on_unwind noalias writable sret(%"class.std::__cxx11::basic_string") align 8 %0, ptr nocapture noundef nonnull readonly align 8 dereferenceable(32) %1) local_unnamed_addr #3 align 2 {
_ZN4absl7debian219str_format_internal18FormatSpecTemplateIJLNS0_23FormatConversionCharSetE131067ELS3_131067ELS3_131067EEEC2EUa9enable_ifIXclL_ZNS1_15ValidFormatImplIJLS3_131067ELS3_131067ELS3_131067EEEEbNS0_11string_viewEEfL0p_EEEPKc.exit:
  %2 = alloca [3 x %"class.absl::debian2::str_format_internal::FormatArgImpl"], align 8
  %3 = load i32, ptr %1, align 8
  %4 = icmp eq i32 %3, 0
  %5 = getelementptr inbounds nuw i8, ptr %1, i64 4
  %6 = getelementptr inbounds i8, ptr %1, i64 8
  call void @llvm.lifetime.start.p0(i64 48, ptr nonnull %2)
  %7 = select i1 %4, ptr inttoptr (i64 104 to ptr), ptr inttoptr (i64 118 to ptr)
  store ptr %7, ptr %2, align 8, !noalias !22
  %8 = getelementptr inbounds nuw i8, ptr %2, i64 8
  store ptr @_ZN4absl7debian219str_format_internal13FormatArgImpl8DispatchIcEEbNS2_4DataENS1_24FormatConversionSpecImplEPv, ptr %8, align 8, !noalias !22
  %9 = getelementptr inbounds i8, ptr %2, i64 16
  %.sroa.0.0.copyload.i.i.i6.i = load i32, ptr %5, align 4, !noalias !22
  %.sroa.0.0.insert.ext.i.i.i7.i = zext i32 %.sroa.0.0.copyload.i.i.i6.i to i64
  %10 = inttoptr i64 %.sroa.0.0.insert.ext.i.i.i7.i to ptr
  store ptr %10, ptr %9, align 8, !noalias !22
  %11 = getelementptr inbounds i8, ptr %2, i64 24
  store ptr @_ZN4absl7debian219str_format_internal13FormatArgImpl8DispatchIiEEbNS2_4DataENS1_24FormatConversionSpecImplEPv, ptr %11, align 8, !noalias !22
  %12 = getelementptr inbounds i8, ptr %2, i64 32
  %.sroa.0.0.copyload.i.i.i8.i = load i32, ptr %6, align 8, !noalias !22
  %.sroa.0.0.insert.ext.i.i.i9.i = zext i32 %.sroa.0.0.copyload.i.i.i8.i to i64
  %13 = inttoptr i64 %.sroa.0.0.insert.ext.i.i.i9.i to ptr
  store ptr %13, ptr %12, align 8, !noalias !22
  %14 = getelementptr inbounds i8, ptr %2, i64 40
  store ptr @_ZN4absl7debian219str_format_internal13FormatArgImpl8DispatchIiEEbNS2_4DataENS1_24FormatConversionSpecImplEPv, ptr %14, align 8, !noalias !22
  call void @_ZN4absl7debian219str_format_internal10FormatPackB5cxx11ENS1_21UntypedFormatSpecImplENS0_4SpanIKNS1_13FormatArgImplEEE(ptr dead_on_unwind writable sret(%"class.std::__cxx11::basic_string") align 8 %0, ptr nonnull @.str.21, i64 8, ptr nonnull %2, i64 3)
  call void @llvm.lifetime.end.p0(i64 48, ptr nonnull %2)
  ret void
}